target datalayout = "e-m:e-p270:32:32-p271:32:32-p272:64:64-i64:64-i128:128-f80:128-n8:16:32:64-S128"
target triple = "x86_64-pc-linux-gnu"

%"struct.cmUVProcessChain::InternalData" = type { ptr, i8, %"class.cm::uv_loop_ptr", ptr, %"struct.cmUVProcessChain::InternalData::StreamData", %"struct.cmUVProcessChain::InternalData::StreamData", %"struct.cmUVProcessChain::InternalData::StreamData", %"struct.cm::uv_pipe_ptr", %"struct.cm::uv_pipe_ptr", i32, %"class.std::vector.18" }
%"class.cm::uv_loop_ptr" = type { %"class.std::shared_ptr" }
%"class.std::shared_ptr" = type { %"class.std::__shared_ptr" }
%"class.std::__shared_ptr" = type { ptr, %"class.std::__shared_count" }
%"class.std::__shared_count" = type { ptr }
%"struct.cmUVProcessChain::InternalData::StreamData" = type { i32, %struct.uv_stdio_container_s }
%struct.uv_stdio_container_s = type { i32, %union.anon.14 }
%union.anon.14 = type { ptr }
%"struct.cm::uv_pipe_ptr" = type { %"class.cm::uv_handle_ptr_" }
%"class.cm::uv_handle_ptr_" = type { %"class.cm::uv_handle_ptr_base_" }
%"class.cm::uv_handle_ptr_base_" = type { %"class.std::shared_ptr.15" }
%"class.std::shared_ptr.15" = type { %"class.std::__shared_ptr.16" }
%"class.std::__shared_ptr.16" = type { ptr, %"class.std::__shared_count" }
%"class.std::vector.18" = type { %"struct.std::_Vector_base.19" }
%"struct.std::_Vector_base.19" = type { %"struct.std::_Vector_base<std::unique_ptr<cmUVProcessChain::InternalData::ProcessData>, std::allocator<std::unique_ptr<cmUVProcessChain::InternalData::ProcessData>>>::_Vector_impl" }
%"struct.std::_Vector_base<std::unique_ptr<cmUVProcessChain::InternalData::ProcessData>, std::allocator<std::unique_ptr<cmUVProcessChain::InternalData::ProcessData>>>::_Vector_impl" = type { %"struct.std::_Vector_base<std::unique_ptr<cmUVProcessChain::InternalData::ProcessData>, std::allocator<std::unique_ptr<cmUVProcessChain::InternalData::ProcessData>>>::_Vector_impl_data" }
%"struct.std::_Vector_base<std::unique_ptr<cmUVProcessChain::InternalData::ProcessData>, std::allocator<std::unique_ptr<cmUVProcessChain::InternalData::ProcessData>>>::_Vector_impl_data" = type { ptr, ptr, ptr }

; Function Attrs: mustprogress uwtable
define dso_local void @_ZN16cmUVProcessChain12InternalData6FinishEv(ptr noundef nonnull align 8 dereferenceable(176) %0) #2 align 2 {
  %2 = alloca ptr, align 8
  store ptr %0, ptr %2, align 8
  %3 = load ptr, ptr %2, align 8
  %4 = getelementptr inbounds %"struct.cmUVProcessChain::InternalData", ptr %3, i32 0, i32 7
  call void @_ZN2cm19uv_handle_ptr_base_I9uv_pipe_sE5resetEv(ptr noundef nonnull align 8 dereferenceable(16) %4)
  %5 = getelementptr inbounds %"struct.cmUVProcessChain::InternalData", ptr %3, i32 0, i32 8
  call void @_ZN2cm19uv_handle_ptr_base_I9uv_pipe_sE5resetEv(ptr noundef nonnull align 8 dereferenceable(16) %5)
  %6 = getelementptr inbounds %"struct.cmUVProcessChain::InternalData", ptr %3, i32 0, i32 1
  store i8 1, ptr %6, align 8
  ret void
}