; Function Attrs: mustprogress uwtable
define dso_local void @_ZN16cmUVProcessChain12InternalData6FinishEv(ptr noundef nonnull align 8 dereferenceable(176) %0) local_unnamed_addr #2 align 2 {
  %2 = getelementptr inbounds nuw i8, ptr %0, i64 112
  tail call void @_ZN2cm19uv_handle_ptr_base_I9uv_pipe_sE5resetEv(ptr noundef nonnull align 8 dereferenceable(16) %2)
  %3 = getelementptr inbounds nuw i8, ptr %0, i64 128
  tail call void @_ZN2cm19uv_handle_ptr_base_I9uv_pipe_sE5resetEv(ptr noundef nonnull align 8 dereferenceable(16) %3)
  %4 = getelementptr inbounds nuw i8, ptr %0, i64 8
  store i8 1, ptr %4, align 8
  ret void
}